; Function Attrs: mustprogress uwtable
define void @_ZN9grpc_core15Chttp2Connector8ShutdownEN4absl12lts_202407226StatusE(ptr noundef nonnull align 8 dereferenceable(168) %0, ptr noundef readonly captures(none) %1) unnamed_addr #3 align 2 personality ptr @__gxx_personality_v0 {
  %3 = alloca %"class.absl::lts_20240722::Status", align 8
  %4 = getelementptr inbounds nuw i8, ptr %0, i64 16
  tail call void @_ZN4absl12lts_202407225Mutex4LockEv(ptr noundef nonnull align 8 dereferenceable(8) %4)
  %5 = getelementptr inbounds nuw i8, ptr %0, i64 72
  store i8 1, ptr %5, align 8, !tbaa !88
  %6 = getelementptr inbounds nuw i8, ptr %0, i64 160
  %7 = load ptr, ptr %6, align 8, !tbaa !74
  %.not = icmp eq ptr %7, null
  br i1 %.not, label %_ZN4absl12lts_202407226StatusD2Ev.exit, label %8

8:                                                ; preds = %2
  %9 = load i64, ptr %1, align 8, !tbaa !54
  store i64 %9, ptr %3, align 8, !tbaa !54
  %10 = and i64 %9, 1
  %.not.i.i = icmp eq i64 %10, 0
  br i1 %.not.i.i, label %11, label %_ZN4absl12lts_202407226StatusC2ERKS1_.exit

11:                                               ; preds = %8
  %12 = inttoptr i64 %9 to ptr
  %13 = atomicrmw add ptr %12, i32 1 monotonic, align 4
  br label %_ZN4absl12lts_202407226StatusC2ERKS1_.exit

_ZN4absl12lts_202407226StatusC2ERKS1_.exit:       ; preds = %11, %8
  invoke void @_ZN9grpc_core16HandshakeManager8ShutdownEN4absl12lts_202407226StatusE(ptr noundef nonnull align 16 dereferenceable(400) %7, ptr noundef nonnull %3)
          to label %14 unwind label %22

14:                                               ; preds = %_ZN4absl12lts_202407226StatusC2ERKS1_.exit
  %15 = load i64, ptr %3, align 8, !tbaa !54
  %16 = and i64 %15, 1
  %.not.i.i4 = icmp eq i64 %16, 0
  br i1 %.not.i.i4, label %17, label %_ZN4absl12lts_202407226StatusD2Ev.exit

17:                                               ; preds = %14
  %18 = inttoptr i64 %15 to ptr
  invoke void @_ZNK4absl12lts_2024072215status_internal9StatusRep5UnrefEv(ptr noundef nonnull align 8 dereferenceable(48) %18)
          to label %_ZN4absl12lts_202407226StatusD2Ev.exit unwind label %19

19:                                               ; preds = %17
  %20 = landingpad { ptr, i32 }
          catch ptr null
  %21 = extractvalue { ptr, i32 } %20, 0
  call void @__clang_call_terminate(ptr %21) #33
  unreachable

22:                                               ; preds = %_ZN4absl12lts_202407226StatusC2ERKS1_.exit
  %23 = landingpad { ptr, i32 }
          cleanup
  call void @_ZN4absl12lts_202407226StatusD2Ev(ptr noundef nonnull align 8 dereferenceable(8) %3) #31
  invoke void @_ZN4absl12lts_202407225Mutex6UnlockEv(ptr noundef nonnull align 8 dereferenceable(8) %4)
          to label %_ZN4absl12lts_202407229MutexLockD2Ev.exit5 unwind label %27

_ZN4absl12lts_202407226StatusD2Ev.exit:           ; preds = %17, %14, %2
  invoke void @_ZN4absl12lts_202407225Mutex6UnlockEv(ptr noundef nonnull align 8 dereferenceable(8) %4)
          to label %_ZN4absl12lts_202407229MutexLockD2Ev.exit unwind label %24

24:                                               ; preds = %_ZN4absl12lts_202407226StatusD2Ev.exit
  %25 = landingpad { ptr, i32 }
          catch ptr null
  %26 = extractvalue { ptr, i32 } %25, 0
  call void @__clang_call_terminate(ptr %26) #33
  unreachable

_ZN4absl12lts_202407229MutexLockD2Ev.exit:        ; preds = %_ZN4absl12lts_202407226StatusD2Ev.exit
  ret void

27:                                               ; preds = %22
  %28 = landingpad { ptr, i32 }
          catch ptr null
  %29 = extractvalue { ptr, i32 } %28, 0
  call void @__clang_call_terminate(ptr %29) #33
  unreachable

_ZN4absl12lts_202407229MutexLockD2Ev.exit5:       ; preds = %22
  resume { ptr, i32 } %23
}